target datalayout = "e-m:e-p270:32:32-p271:32:32-p272:64:64-i64:64-i128:128-f80:128-n8:16:32:64-S128"
target triple = "x86_64-pc-linux-gnu"

%"class.(anonymous namespace)::SaveRestoreErrorState" = type { i8, i8 }

@_ZN13cmSystemTools20s_FatalErrorOccurredE = external global i8, align 1
@_ZN13cmSystemTools15s_ErrorOccurredE = external global i8, align 1

; Function Attrs: mustprogress nounwind uwtable
define linkonce_odr dso_local void @_ZN13cmSystemTools22ResetErrorOccurredFlagEv() #5 comdat align 2 {
  store i8 0, ptr @_ZN13cmSystemTools20s_FatalErrorOccurredE, align 1
  store i8 0, ptr @_ZN13cmSystemTools15s_ErrorOccurredE, align 1
  ret void
}

; Function Attrs: mustprogress uwtable
define linkonce_odr dso_local noundef zeroext i1 @_ZN13cmSystemTools20GetErrorOccurredFlagEv() #4 comdat align 2 {
  %1 = load i8, ptr @_ZN13cmSystemTools15s_ErrorOccurredE, align 1
  %2 = trunc i8 %1 to i1
  br i1 %2, label %8, label %3

3:                                                ; preds = %0
  %4 = load i8, ptr @_ZN13cmSystemTools20s_FatalErrorOccurredE, align 1
  %5 = trunc i8 %4 to i1
  br i1 %5, label %8, label %6

6:                                                ; preds = %3
  %7 = call noundef zeroext i1 @_ZN13cmSystemTools16GetInterruptFlagEv()
  br label %8

8:                                                ; preds = %6, %3, %0
  %9 = phi i1 [ true, %3 ], [ true, %0 ], [ %7, %6 ]
  ret i1 %9
}

; Function Attrs: mustprogress nounwind uwtable
define linkonce_odr dso_local void @_ZN13cmSystemTools16SetErrorOccurredEv() #5 comdat align 2 {
  store i8 1, ptr @_ZN13cmSystemTools15s_ErrorOccurredE, align 1
  ret void
}

; Function Attrs: mustprogress nounwind uwtable
define internal void @_ZN12_GLOBAL__N_121SaveRestoreErrorStateD2Ev(ptr noundef nonnull align 1 dereferenceable(2) %0) unnamed_addr #5 align 2 personality ptr @__gxx_personality_v0 {
  %2 = alloca ptr, align 8
  %3 = alloca i8, align 1
  store ptr %0, ptr %2, align 8
  %4 = load ptr, ptr %2, align 8
  %5 = getelementptr inbounds %"class.(anonymous namespace)::SaveRestoreErrorState", ptr %4, i32 0, i32 1
  %6 = load i8, ptr %5, align 1
  %7 = trunc i8 %6 to i1
  br i1 %7, label %15, label %8

8:                                                ; preds = %1
  %9 = getelementptr inbounds %"class.(anonymous namespace)::SaveRestoreErrorState", ptr %4, i32 0, i32 0
  %10 = load i8, ptr %9, align 1
  %11 = trunc i8 %10 to i1
  br i1 %11, label %12, label %14

12:                                               ; preds = %8
  invoke void @_ZN13cmSystemTools16SetErrorOccurredEv()
          to label %13 unwind label %36

13:                                               ; preds = %12
  br label %14

14:                                               ; preds = %13, %8
  br label %35

15:                                               ; preds = %1
  %16 = invoke noundef zeroext i1 @_ZN13cmSystemTools20GetErrorOccurredFlagEv()
          to label %17 unwind label %36

17:                                               ; preds = %15
  %18 = zext i1 %16 to i8
  store i8 %18, ptr %3, align 1
  %19 = load i8, ptr %3, align 1
  %20 = trunc i8 %19 to i1
  %21 = zext i1 %20 to i32
  %22 = getelementptr inbounds %"class.(anonymous namespace)::SaveRestoreErrorState", ptr %4, i32 0, i32 0
  %23 = load i8, ptr %22, align 1
  %24 = trunc i8 %23 to i1
  %25 = zext i1 %24 to i32
  %26 = icmp ne i32 %21, %25
  br i1 %26, label %27, label %35

27:                                               ; preds = %17
  %28 = getelementptr inbounds %"class.(anonymous namespace)::SaveRestoreErrorState", ptr %4, i32 0, i32 0
  %29 = load i8, ptr %28, align 1
  %30 = trunc i8 %29 to i1
  br i1 %30, label %31, label %33

31:                                               ; preds = %27
  invoke void @_ZN13cmSystemTools16SetErrorOccurredEv()
          to label %32 unwind label %36

32:                                               ; preds = %31
  br label %34

33:                                               ; preds = %27
  call void @_ZN13cmSystemTools22ResetErrorOccurredFlagEv()
  br label %34

34:                                               ; preds = %33, %32
  br label %35

35:                                               ; preds = %34, %17, %14
  ret void

36:                                               ; preds = %31, %15, %12
  %37 = landingpad { ptr, i32 }
          catch ptr null
  %38 = extractvalue { ptr, i32 } %37, 0
  call void @__clang_call_terminate(ptr %38) #16
  unreachable
}