; Function Attrs: mustprogress nounwind uwtable
define internal fastcc void @_ZN12_GLOBAL__N_121SaveRestoreErrorStateD2Ev(ptr nocapture noundef nonnull readonly align 1 dereferenceable(2) %0) unnamed_addr #4 align 2 personality ptr @__gxx_personality_v0 {
  %2 = getelementptr inbounds i8, ptr %0, i64 1
  %3 = load i8, ptr %2, align 1
  %4 = and i8 %3, 1
  %.not = icmp eq i8 %4, 0
  br i1 %.not, label %5, label %8

5:                                                ; preds = %1
  %6 = load i8, ptr %0, align 1
  %7 = and i8 %6, 1
  %.not1 = icmp eq i8 %7, 0
  br i1 %.not1, label %23, label %.sink.split

8:                                                ; preds = %1
  %9 = load i8, ptr @_ZN13cmSystemTools15s_ErrorOccurredE, align 1
  %10 = and i8 %9, 1
  %.not.i = icmp eq i8 %10, 0
  br i1 %.not.i, label %11, label %_ZN13cmSystemTools20GetErrorOccurredFlagEv.exit.thr_comm

11:                                               ; preds = %8
  %12 = load i8, ptr @_ZN13cmSystemTools20s_FatalErrorOccurredE, align 1
  %13 = and i8 %12, 1
  %.not1.i = icmp eq i8 %13, 0
  br i1 %.not1.i, label %14, label %_ZN13cmSystemTools20GetErrorOccurredFlagEv.exit.thr_comm

14:                                               ; preds = %11
  %15 = invoke noundef zeroext i1 @_ZN13cmSystemTools16GetInterruptFlagEv()
          to label %_ZN13cmSystemTools20GetErrorOccurredFlagEv.exit unwind label %24

_ZN13cmSystemTools20GetErrorOccurredFlagEv.exit.thr_comm: ; preds = %8, %11
  %16 = load i8, ptr %0, align 1
  %17 = and i8 %16, 1
  %18 = icmp eq i8 %17, 0
  br i1 %18, label %.thread, label %23

_ZN13cmSystemTools20GetErrorOccurredFlagEv.exit:  ; preds = %14
  %19 = load i8, ptr %0, align 1
  %20 = and i8 %19, 1
  %21 = icmp eq i8 %20, 0
  %.not3 = xor i1 %15, %21
  br i1 %.not3, label %23, label %22

22:                                               ; preds = %_ZN13cmSystemTools20GetErrorOccurredFlagEv.exit
  br i1 %21, label %.thread, label %.sink.split

.thread:                                          ; preds = %_ZN13cmSystemTools20GetErrorOccurredFlagEv.exit.thr_comm, %22
  store i8 0, ptr @_ZN13cmSystemTools20s_FatalErrorOccurredE, align 1
  br label %.sink.split

.sink.split:                                      ; preds = %22, %5, %.thread
  %.sink = phi i8 [ 0, %.thread ], [ 1, %5 ], [ 1, %22 ]
  store i8 %.sink, ptr @_ZN13cmSystemTools15s_ErrorOccurredE, align 1
  br label %23

23:                                               ; preds = %.sink.split, %_ZN13cmSystemTools20GetErrorOccurredFlagEv.exit.thr_comm, %5, %_ZN13cmSystemTools20GetErrorOccurredFlagEv.exit
  ret void

24:                                               ; preds = %14
  %25 = landingpad { ptr, i32 }
          catch ptr null
  %26 = extractvalue { ptr, i32 } %25, 0
  tail call void @__clang_call_terminate(ptr %26) #20
  unreachable
}